target datalayout = "e-m:e-p270:32:32-p271:32:32-p272:64:64-i64:64-i128:128-f80:128-n8:16:32:64-S128"
target triple = "x86_64-pc-linux-gnu"

%struct.sharedObjectsStruct = type { ptr, ptr, ptr, ptr, ptr, ptr, ptr, ptr, [4 x ptr], [4 x ptr], [4 x ptr], [4 x ptr], ptr, ptr, ptr, ptr, ptr, ptr, ptr, ptr, ptr, ptr, ptr, ptr, ptr, ptr, ptr, ptr, ptr, ptr, ptr, ptr, ptr, ptr, ptr, ptr, ptr, ptr, ptr, ptr, ptr, ptr, ptr, ptr, ptr, ptr, ptr, ptr, ptr, ptr, ptr, ptr, ptr, ptr, ptr, ptr, ptr, ptr, ptr, ptr, ptr, ptr, ptr, ptr, ptr, ptr, ptr, ptr, ptr, ptr, ptr, ptr, ptr, ptr, ptr, ptr, ptr, ptr, ptr, ptr, ptr, ptr, ptr, ptr, ptr, ptr, ptr, ptr, [10 x ptr], [10000 x ptr], [32 x ptr], [32 x ptr], [32 x ptr], [32 x ptr], ptr, ptr }
%struct.client = type { i64, i64, ptr, i8, i8, i8, i8, i32, ptr, ptr, ptr, ptr, ptr, i64, i64, i32, ptr, i32, i32, ptr, i64, ptr, ptr, ptr, ptr, ptr, i32, i32, i64, ptr, i64, ptr, i64, i64, i64, i32, ptr, i64, i64, i32, i32, i32, i32, i64, i64, ptr, i64, i64, i64, i64, i64, i64, i64, i64, [41 x i8], i32, ptr, i32, i32, i64, %struct.multiState, %struct.blockingState, i64, ptr, ptr, ptr, ptr, ptr, ptr, ptr, ptr, ptr, ptr, ptr, ptr, ptr, ptr, i64, ptr, i64, i32, ptr, ptr, ptr, i64, %struct.listNode, i64, i64, i32, i64, ptr }
%struct.multiState = type { ptr, i32, i32, i32, i64, i32 }
%struct.blockingState = type { i32, i64, i32, ptr, i32, i32, i64, ptr, ptr, i64 }
%struct.listNode = type { ptr, ptr, ptr }
%struct.connection = type { ptr, i32, i32, i32, i16, i16, i16, ptr, ptr, ptr, ptr, ptr }
%struct.ConnectionType = type { ptr, ptr, ptr, ptr, ptr, ptr, ptr, ptr, ptr, ptr, ptr, ptr, ptr, ptr, ptr, ptr, ptr, ptr, ptr, ptr, ptr, ptr, ptr, ptr, ptr, ptr, ptr, ptr, ptr, ptr }

@.str.2 = private unnamed_addr constant [11 x i8] c"tracking.c\00", align 1
@TrackingChannelName = dso_local global ptr null, align 8
@.str.8 = private unnamed_addr constant [22 x i8] c"tracking-redir-broken\00", align 1
@.str.9 = private unnamed_addr constant [11 x i8] c"invalidate\00", align 1
@shared = external global %struct.sharedObjectsStruct, align 8
@.str.10 = private unnamed_addr constant [35 x i8] c"!(c->flags & CLIENT_PENDING_WRITE)\00", align 1

; Function Attrs: inlinehint nounwind uwtable
define internal i32 @connSetWriteHandler(ptr noundef %0, ptr noundef %1) #5 {
  %3 = alloca ptr, align 8
  %4 = alloca ptr, align 8
  store ptr %0, ptr %3, align 8, !tbaa !99
  store ptr %1, ptr %4, align 8, !tbaa !38
  %5 = load ptr, ptr %3, align 8, !tbaa !99
  %6 = getelementptr inbounds nuw %struct.connection, ptr %5, i32 0, i32 0
  %7 = load ptr, ptr %6, align 8, !tbaa !100
  %8 = getelementptr inbounds nuw %struct.ConnectionType, ptr %7, i32 0, i32 19
  %9 = load ptr, ptr %8, align 8, !tbaa !102
  %10 = load ptr, ptr %3, align 8, !tbaa !99
  %11 = load ptr, ptr %4, align 8, !tbaa !38
  %12 = call i32 %9(ptr noundef %10, ptr noundef %11, i32 noundef 0)
  ret i32 %12
}

; Function Attrs: nounwind uwtable
define dso_local void @sendTrackingMessage(ptr noundef %0, ptr noundef %1, i64 noundef %2, i32 noundef %3) #0 {
  %5 = alloca ptr, align 8
  %6 = alloca ptr, align 8
  %7 = alloca i64, align 8
  %8 = alloca i32, align 4
  %9 = alloca i32, align 4
  %10 = alloca i64, align 8
  %11 = alloca i32, align 4
  %12 = alloca ptr, align 8
  %13 = alloca i32, align 4
  store ptr %0, ptr %5, align 8, !tbaa !5
  store ptr %1, ptr %6, align 8, !tbaa !71
  store i64 %2, ptr %7, align 8, !tbaa !67
  store i32 %3, ptr %8, align 4, !tbaa !37
  call void @llvm.lifetime.start.p0(i64 4, ptr %9) #10
  store i32 0, ptr %9, align 4, !tbaa !37
  call void @llvm.lifetime.start.p0(i64 8, ptr %10) #10
  %14 = load ptr, ptr %5, align 8, !tbaa !5
  %15 = getelementptr inbounds nuw %struct.client, ptr %14, i32 0, i32 1
  %16 = load i64, ptr %15, align 8, !tbaa !10
  store i64 %16, ptr %10, align 8, !tbaa !67
  %17 = load ptr, ptr %5, align 8, !tbaa !5
  %18 = getelementptr inbounds nuw %struct.client, ptr %17, i32 0, i32 1
  %19 = load i64, ptr %18, align 8, !tbaa !10
  %20 = or i64 %19, 70368744177664
  store i64 %20, ptr %18, align 8, !tbaa !10
  call void @llvm.lifetime.start.p0(i64 4, ptr %11) #10
  store i32 0, ptr %11, align 4, !tbaa !37
  %21 = load ptr, ptr %5, align 8, !tbaa !5
  %22 = getelementptr inbounds nuw %struct.client, ptr %21, i32 0, i32 77
  %23 = load i64, ptr %22, align 8, !tbaa !78
  %24 = icmp ne i64 %23, 0
  br i1 %24, label %25, label %90

25:                                               ; preds = %4
  call void @llvm.lifetime.start.p0(i64 8, ptr %12) #10
  %26 = load ptr, ptr %5, align 8, !tbaa !5
  %27 = getelementptr inbounds nuw %struct.client, ptr %26, i32 0, i32 77
  %28 = load i64, ptr %27, align 8, !tbaa !78
  %29 = call ptr @lookupClientByID(i64 noundef %28)
  store ptr %29, ptr %12, align 8, !tbaa !5
  %30 = load ptr, ptr %12, align 8, !tbaa !5
  %31 = icmp ne ptr %30, null
  br i1 %31, label %58, label %32

32:                                               ; preds = %25
  %33 = load ptr, ptr %5, align 8, !tbaa !5
  %34 = getelementptr inbounds nuw %struct.client, ptr %33, i32 0, i32 1
  %35 = load i64, ptr %34, align 8, !tbaa !10
  %36 = or i64 %35, 4294967296
  store i64 %36, ptr %34, align 8, !tbaa !10
  %37 = load ptr, ptr %5, align 8, !tbaa !5
  %38 = getelementptr inbounds nuw %struct.client, ptr %37, i32 0, i32 7
  %39 = load i32, ptr %38, align 4, !tbaa !94
  %40 = icmp sgt i32 %39, 2
  br i1 %40, label %41, label %48

41:                                               ; preds = %32
  %42 = load ptr, ptr %5, align 8, !tbaa !5
  call void @addReplyPushLen(ptr noundef %42, i64 noundef 2)
  %43 = load ptr, ptr %5, align 8, !tbaa !5
  call void @addReplyBulkCBuffer(ptr noundef %43, ptr noundef @.str.8, i64 noundef 21)
  %44 = load ptr, ptr %5, align 8, !tbaa !5
  %45 = load ptr, ptr %5, align 8, !tbaa !5
  %46 = getelementptr inbounds nuw %struct.client, ptr %45, i32 0, i32 77
  %47 = load i64, ptr %46, align 8, !tbaa !78
  call void @addReplyLongLong(ptr noundef %44, i64 noundef %47)
  br label %48

48:                                               ; preds = %41, %32
  %49 = load i64, ptr %10, align 8, !tbaa !67
  %50 = and i64 %49, 70368744177664
  %51 = icmp ne i64 %50, 0
  br i1 %51, label %57, label %52

52:                                               ; preds = %48
  %53 = load ptr, ptr %5, align 8, !tbaa !5
  %54 = getelementptr inbounds nuw %struct.client, ptr %53, i32 0, i32 1
  %55 = load i64, ptr %54, align 8, !tbaa !10
  %56 = and i64 %55, -70368744177665
  store i64 %56, ptr %54, align 8, !tbaa !10
  br label %57

57:                                               ; preds = %52, %48
  store i32 1, ptr %13, align 4
  br label %87

58:                                               ; preds = %25
  %59 = load i64, ptr %10, align 8, !tbaa !67
  %60 = and i64 %59, 70368744177664
  %61 = icmp ne i64 %60, 0
  br i1 %61, label %67, label %62

62:                                               ; preds = %58
  %63 = load ptr, ptr %5, align 8, !tbaa !5
  %64 = getelementptr inbounds nuw %struct.client, ptr %63, i32 0, i32 1
  %65 = load i64, ptr %64, align 8, !tbaa !10
  %66 = and i64 %65, -70368744177665
  store i64 %66, ptr %64, align 8, !tbaa !10
  br label %67

67:                                               ; preds = %62, %58
  %68 = load ptr, ptr %12, align 8, !tbaa !5
  store ptr %68, ptr %5, align 8, !tbaa !5
  store i32 1, ptr %11, align 4, !tbaa !37
  %69 = load ptr, ptr %5, align 8, !tbaa !5
  %70 = getelementptr inbounds nuw %struct.client, ptr %69, i32 0, i32 4
  %71 = load i8, ptr %70, align 1, !tbaa !95
  %72 = zext i8 %71 to i32
  %73 = icmp ne i32 %72, 0
  br i1 %73, label %74, label %79

74:                                               ; preds = %67
  %75 = load ptr, ptr %5, align 8, !tbaa !5
  %76 = getelementptr inbounds nuw %struct.client, ptr %75, i32 0, i32 4
  %77 = load i8, ptr %76, align 1, !tbaa !95
  %78 = zext i8 %77 to i32
  call void @pauseIOThread(i32 noundef %78)
  store i32 1, ptr %9, align 4, !tbaa !37
  br label %79

79:                                               ; preds = %74, %67
  %80 = load ptr, ptr %5, align 8, !tbaa !5
  %81 = getelementptr inbounds nuw %struct.client, ptr %80, i32 0, i32 1
  %82 = load i64, ptr %81, align 8, !tbaa !10
  store i64 %82, ptr %10, align 8, !tbaa !67
  %83 = load ptr, ptr %5, align 8, !tbaa !5
  %84 = getelementptr inbounds nuw %struct.client, ptr %83, i32 0, i32 1
  %85 = load i64, ptr %84, align 8, !tbaa !10
  %86 = or i64 %85, 70368744177664
  store i64 %86, ptr %84, align 8, !tbaa !10
  store i32 0, ptr %13, align 4
  br label %87

87:                                               ; preds = %79, %57
  call void @llvm.lifetime.end.p0(i64 8, ptr %12) #10
  %88 = load i32, ptr %13, align 4
  switch i32 %88, label %180 [
    i32 0, label %89
  ]

89:                                               ; preds = %87
  br label %90

90:                                               ; preds = %89, %4
  %91 = load ptr, ptr %5, align 8, !tbaa !5
  %92 = getelementptr inbounds nuw %struct.client, ptr %91, i32 0, i32 7
  %93 = load i32, ptr %92, align 4, !tbaa !94
  %94 = icmp sgt i32 %93, 2
  br i1 %94, label %95, label %98

95:                                               ; preds = %90
  %96 = load ptr, ptr %5, align 8, !tbaa !5
  call void @addReplyPushLen(ptr noundef %96, i64 noundef 2)
  %97 = load ptr, ptr %5, align 8, !tbaa !5
  call void @addReplyBulkCBuffer(ptr noundef %97, ptr noundef @.str.9, i64 noundef 10)
  br label %122

98:                                               ; preds = %90
  %99 = load i32, ptr %11, align 4, !tbaa !37
  %100 = icmp ne i32 %99, 0
  br i1 %100, label %101, label %111

101:                                              ; preds = %98
  %102 = load ptr, ptr %5, align 8, !tbaa !5
  %103 = getelementptr inbounds nuw %struct.client, ptr %102, i32 0, i32 1
  %104 = load i64, ptr %103, align 8, !tbaa !10
  %105 = and i64 %104, 262144
  %106 = icmp ne i64 %105, 0
  br i1 %106, label %107, label %111

107:                                              ; preds = %101
  %108 = load ptr, ptr %5, align 8, !tbaa !5
  %109 = load ptr, ptr @TrackingChannelName, align 8, !tbaa !68
  %110 = load ptr, ptr getelementptr inbounds nuw (%struct.sharedObjectsStruct, ptr @shared, i32 0, i32 32), align 8, !tbaa !96
  call void @addReplyPubsubMessage(ptr noundef %108, ptr noundef %109, ptr noundef null, ptr noundef %110)
  br label %121

111:                                              ; preds = %101, %98
  %112 = load i64, ptr %10, align 8, !tbaa !67
  %113 = and i64 %112, 70368744177664
  %114 = icmp ne i64 %113, 0
  br i1 %114, label %120, label %115

115:                                              ; preds = %111
  %116 = load ptr, ptr %5, align 8, !tbaa !5
  %117 = getelementptr inbounds nuw %struct.client, ptr %116, i32 0, i32 1
  %118 = load i64, ptr %117, align 8, !tbaa !10
  %119 = and i64 %118, -70368744177665
  store i64 %119, ptr %117, align 8, !tbaa !10
  br label %120

120:                                              ; preds = %115, %111
  br label %146

121:                                              ; preds = %107
  br label %122

122:                                              ; preds = %121, %95
  %123 = load i32, ptr %8, align 4, !tbaa !37
  %124 = icmp ne i32 %123, 0
  br i1 %124, label %125, label %129

125:                                              ; preds = %122
  %126 = load ptr, ptr %5, align 8, !tbaa !5
  %127 = load ptr, ptr %6, align 8, !tbaa !71
  %128 = load i64, ptr %7, align 8, !tbaa !67
  call void @addReplyProto(ptr noundef %126, ptr noundef %127, i64 noundef %128)
  br label %134

129:                                              ; preds = %122
  %130 = load ptr, ptr %5, align 8, !tbaa !5
  call void @addReplyArrayLen(ptr noundef %130, i64 noundef 1)
  %131 = load ptr, ptr %5, align 8, !tbaa !5
  %132 = load ptr, ptr %6, align 8, !tbaa !71
  %133 = load i64, ptr %7, align 8, !tbaa !67
  call void @addReplyBulkCBuffer(ptr noundef %131, ptr noundef %132, i64 noundef %133)
  br label %134

134:                                              ; preds = %129, %125
  %135 = load ptr, ptr %5, align 8, !tbaa !5
  %136 = call i32 @updateClientMemUsageAndBucket(ptr noundef %135)
  %137 = load i64, ptr %10, align 8, !tbaa !67
  %138 = and i64 %137, 70368744177664
  %139 = icmp ne i64 %138, 0
  br i1 %139, label %145, label %140

140:                                              ; preds = %134
  %141 = load ptr, ptr %5, align 8, !tbaa !5
  %142 = getelementptr inbounds nuw %struct.client, ptr %141, i32 0, i32 1
  %143 = load i64, ptr %142, align 8, !tbaa !10
  %144 = and i64 %143, -70368744177665
  store i64 %144, ptr %142, align 8, !tbaa !10
  br label %145

145:                                              ; preds = %140, %134
  br label %146

146:                                              ; preds = %145, %120
  %147 = load i32, ptr %9, align 4, !tbaa !37
  %148 = icmp ne i32 %147, 0
  br i1 %148, label %149, label %179

149:                                              ; preds = %146
  %150 = load ptr, ptr %5, align 8, !tbaa !5
  %151 = call i32 @clientHasPendingReplies(ptr noundef %150)
  %152 = icmp ne i32 %151, 0
  br i1 %152, label %153, label %174

153:                                              ; preds = %149
  %154 = load ptr, ptr %5, align 8, !tbaa !5
  %155 = getelementptr inbounds nuw %struct.client, ptr %154, i32 0, i32 1
  %156 = load i64, ptr %155, align 8, !tbaa !10
  %157 = and i64 %156, 2097152
  %158 = icmp ne i64 %157, 0
  %159 = xor i1 %158, true
  %160 = xor i1 %159, true
  %161 = xor i1 %160, true
  %162 = zext i1 %161 to i32
  %163 = sext i32 %162 to i64
  %164 = call i64 @llvm.expect.i64(i64 %163, i64 1)
  %165 = icmp ne i64 %164, 0
  br i1 %165, label %166, label %167

166:                                              ; preds = %153
  br label %169

167:                                              ; preds = %153
  call void @_serverAssert(ptr noundef @.str.10, ptr noundef @.str.2, i32 noundef 321)
  call void @abort() #11
  unreachable

168:                                              ; No predecessors!
  br label %169

169:                                              ; preds = %168, %166
  %170 = load ptr, ptr %5, align 8, !tbaa !5
  %171 = getelementptr inbounds nuw %struct.client, ptr %170, i32 0, i32 2
  %172 = load ptr, ptr %171, align 8, !tbaa !98
  %173 = call i32 @connSetWriteHandler(ptr noundef %172, ptr noundef @sendReplyToClient)
  br label %174

174:                                              ; preds = %169, %149
  %175 = load ptr, ptr %5, align 8, !tbaa !5
  %176 = getelementptr inbounds nuw %struct.client, ptr %175, i32 0, i32 4
  %177 = load i8, ptr %176, align 1, !tbaa !95
  %178 = zext i8 %177 to i32
  call void @resumeIOThread(i32 noundef %178)
  br label %179

179:                                              ; preds = %174, %146
  store i32 0, ptr %13, align 4
  br label %180

180:                                              ; preds = %179, %87
  call void @llvm.lifetime.end.p0(i64 4, ptr %11) #10
  call void @llvm.lifetime.end.p0(i64 8, ptr %10) #10
  call void @llvm.lifetime.end.p0(i64 4, ptr %9) #10
  %181 = load i32, ptr %13, align 4
  switch i32 %181, label %183 [
    i32 0, label %182
    i32 1, label %182
  ]

182:                                              ; preds = %180, %180
  ret void

183:                                              ; preds = %180
  unreachable
}