; Function Attrs: nounwind uwtable
define dso_local void @sendTrackingMessage(ptr noundef %0, ptr noundef %1, i64 noundef %2, i32 noundef %3) local_unnamed_addr #0 {
  %5 = getelementptr inbounds nuw i8, ptr %0, i64 8
  %6 = load i64, ptr %5, align 8, !tbaa !10
  %7 = or i64 %6, 70368744177664
  store i64 %7, ptr %5, align 8, !tbaa !10
  %8 = getelementptr inbounds nuw i8, ptr %0, i64 672
  %9 = load i64, ptr %8, align 8, !tbaa !74
  %.not = icmp eq i64 %9, 0
  br i1 %.not, label %35, label %10

10:                                               ; preds = %4
  %11 = tail call ptr @lookupClientByID(i64 noundef %9) #9
  %.not54.not = icmp eq ptr %11, null
  br i1 %.not54.not, label %12, label %25

12:                                               ; preds = %10
  %13 = load i64, ptr %5, align 8, !tbaa !10
  %14 = or i64 %13, 4294967296
  store i64 %14, ptr %5, align 8, !tbaa !10
  %15 = getelementptr inbounds nuw i8, ptr %0, i64 28
  %16 = load i32, ptr %15, align 4, !tbaa !91
  %17 = icmp sgt i32 %16, 2
  br i1 %17, label %18, label %20

18:                                               ; preds = %12
  tail call void @addReplyPushLen(ptr noundef nonnull %0, i64 noundef 2) #9
  tail call void @addReplyBulkCBuffer(ptr noundef nonnull %0, ptr noundef nonnull @.str.8, i64 noundef 21) #9
  %19 = load i64, ptr %8, align 8, !tbaa !74
  tail call void @addReplyLongLong(ptr noundef nonnull %0, i64 noundef %19) #9
  br label %20

20:                                               ; preds = %18, %12
  %21 = and i64 %6, 70368744177664
  %.not55 = icmp eq i64 %21, 0
  br i1 %.not55, label %22, label %.thread

22:                                               ; preds = %20
  %23 = load i64, ptr %5, align 8, !tbaa !10
  %24 = and i64 %23, -70368744177665
  store i64 %24, ptr %5, align 8, !tbaa !10
  br label %.thread

25:                                               ; preds = %10
  %26 = and i64 %6, 70368744177664
  %.not56 = icmp eq i64 %26, 0
  br i1 %.not56, label %27, label %30

27:                                               ; preds = %25
  %28 = load i64, ptr %5, align 8, !tbaa !10
  %29 = and i64 %28, -70368744177665
  store i64 %29, ptr %5, align 8, !tbaa !10
  br label %30

30:                                               ; preds = %27, %25
  %31 = getelementptr inbounds nuw i8, ptr %11, i64 25
  %32 = load i8, ptr %31, align 1, !tbaa !92
  %.not57 = icmp eq i8 %32, 0
  br i1 %.not57, label %.thread70, label %33

33:                                               ; preds = %30
  %34 = zext i8 %32 to i32
  tail call void @pauseIOThread(i32 noundef %34) #9
  br label %.thread70

35:                                               ; preds = %4
  %36 = getelementptr inbounds nuw i8, ptr %0, i64 28
  %37 = load i32, ptr %36, align 4, !tbaa !91
  %38 = icmp sgt i32 %37, 2
  br i1 %38, label %45, label %51

.thread70:                                        ; preds = %33, %30
  %.2 = phi i32 [ 1, %33 ], [ 0, %30 ]
  %39 = getelementptr inbounds nuw i8, ptr %11, i64 8
  %40 = load i64, ptr %39, align 8, !tbaa !10
  %41 = or i64 %40, 70368744177664
  store i64 %41, ptr %39, align 8, !tbaa !10
  %42 = getelementptr inbounds nuw i8, ptr %11, i64 28
  %43 = load i32, ptr %42, align 4, !tbaa !91
  %44 = icmp sgt i32 %43, 2
  br i1 %44, label %45, label %46

45:                                               ; preds = %.thread70, %35
  %.04483 = phi ptr [ %11, %.thread70 ], [ %0, %35 ]
  %.04781 = phi i64 [ %40, %.thread70 ], [ %6, %35 ]
  %.04978 = phi i32 [ %.2, %.thread70 ], [ 0, %35 ]
  tail call void @addReplyPushLen(ptr noundef nonnull %.04483, i64 noundef 2) #9
  tail call void @addReplyBulkCBuffer(ptr noundef nonnull %.04483, ptr noundef nonnull @.str.9, i64 noundef 10) #9
  br label %57

46:                                               ; preds = %.thread70
  %47 = and i64 %40, 262144
  %.not59 = icmp eq i64 %47, 0
  br i1 %.not59, label %51, label %48

48:                                               ; preds = %46
  %49 = load ptr, ptr @TrackingChannelName, align 8, !tbaa !64
  %50 = load ptr, ptr getelementptr inbounds nuw (i8, ptr @shared, i64 352), align 8, !tbaa !93
  tail call void @addReplyPubsubMessage(ptr noundef nonnull %11, ptr noundef %49, ptr noundef null, ptr noundef %50) #9
  br label %57

51:                                               ; preds = %35, %46
  %52 = phi i64 [ %41, %46 ], [ %7, %35 ]
  %.0497798 = phi i32 [ %.2, %46 ], [ 0, %35 ]
  %.0478096 = phi i64 [ %40, %46 ], [ %6, %35 ]
  %.0448594 = phi ptr [ %11, %46 ], [ %0, %35 ]
  %53 = and i64 %.0478096, 70368744177664
  %.not60 = icmp eq i64 %53, 0
  br i1 %.not60, label %54, label %67

54:                                               ; preds = %51
  %55 = getelementptr inbounds nuw i8, ptr %.0448594, i64 8
  %56 = and i64 %52, -70368744177665
  store i64 %56, ptr %55, align 8, !tbaa !10
  br label %67

57:                                               ; preds = %48, %45
  %.04484 = phi ptr [ %11, %48 ], [ %.04483, %45 ]
  %.04779 = phi i64 [ %40, %48 ], [ %.04781, %45 ]
  %.04976 = phi i32 [ %.2, %48 ], [ %.04978, %45 ]
  %.not61 = icmp eq i32 %3, 0
  br i1 %.not61, label %59, label %58

58:                                               ; preds = %57
  tail call void @addReplyProto(ptr noundef nonnull %.04484, ptr noundef %1, i64 noundef %2) #9
  br label %60

59:                                               ; preds = %57
  tail call void @addReplyArrayLen(ptr noundef nonnull %.04484, i64 noundef 1) #9
  tail call void @addReplyBulkCBuffer(ptr noundef nonnull %.04484, ptr noundef %1, i64 noundef %2) #9
  br label %60

60:                                               ; preds = %59, %58
  %61 = tail call i32 @updateClientMemUsageAndBucket(ptr noundef nonnull %.04484) #9
  %62 = and i64 %.04779, 70368744177664
  %.not62 = icmp eq i64 %62, 0
  br i1 %.not62, label %63, label %67

63:                                               ; preds = %60
  %64 = getelementptr inbounds nuw i8, ptr %.04484, i64 8
  %65 = load i64, ptr %64, align 8, !tbaa !10
  %66 = and i64 %65, -70368744177665
  store i64 %66, ptr %64, align 8, !tbaa !10
  br label %67

67:                                               ; preds = %60, %63, %51, %54
  %.04486 = phi ptr [ %.04484, %60 ], [ %.04484, %63 ], [ %.0448594, %51 ], [ %.0448594, %54 ]
  %.04975 = phi i32 [ %.04976, %60 ], [ %.04976, %63 ], [ %.0497798, %51 ], [ %.0497798, %54 ]
  %.not63 = icmp eq i32 %.04975, 0
  br i1 %.not63, label %.thread, label %68

68:                                               ; preds = %67
  %69 = tail call i32 @clientHasPendingReplies(ptr noundef nonnull %.04486) #9
  %.not64 = icmp eq i32 %69, 0
  br i1 %.not64, label %82, label %70

70:                                               ; preds = %68
  %71 = getelementptr inbounds nuw i8, ptr %.04486, i64 8
  %72 = load i64, ptr %71, align 8, !tbaa !10
  %73 = and i64 %72, 2097152
  %.not65 = icmp eq i64 %73, 0
  br i1 %.not65, label %75, label %74, !prof !89

74:                                               ; preds = %70
  tail call void @_serverAssert(ptr noundef nonnull @.str.10, ptr noundef nonnull @.str.2, i32 noundef 321) #9
  tail call void @abort() #10
  unreachable

75:                                               ; preds = %70
  %76 = getelementptr inbounds nuw i8, ptr %.04486, i64 16
  %77 = load ptr, ptr %76, align 8, !tbaa !95
  %78 = load ptr, ptr %77, align 8, !tbaa !96
  %79 = getelementptr inbounds nuw i8, ptr %78, i64 152
  %80 = load ptr, ptr %79, align 8, !tbaa !98
  %81 = tail call i32 %80(ptr noundef nonnull %77, ptr noundef nonnull @sendReplyToClient, i32 noundef 0) #9
  br label %82

82:                                               ; preds = %75, %68
  %83 = getelementptr inbounds nuw i8, ptr %.04486, i64 25
  %84 = load i8, ptr %83, align 1, !tbaa !92
  %85 = zext i8 %84 to i32
  tail call void @resumeIOThread(i32 noundef %85) #9
  br label %.thread

.thread:                                          ; preds = %22, %20, %67, %82
  ret void
}